target datalayout = "e-m:e-p270:32:32-p271:32:32-p272:64:64-i64:64-i128:128-f80:128-n8:16:32:64-S128"
target triple = "x86_64-pc-linux-gnu"

%struct.CvTermCriteria = type { i32, i32, double }
%class.CvLevMarq = type { %"struct.cv::Ptr", %"struct.cv::Ptr", %"struct.cv::Ptr", %"struct.cv::Ptr", %"struct.cv::Ptr", %"struct.cv::Ptr", %"struct.cv::Ptr", %"struct.cv::Ptr", %"struct.cv::Ptr", %"struct.cv::Ptr", double, double, i32, %struct.CvTermCriteria, i32, i32, i8, i32 }
%"struct.cv::Ptr" = type { %"class.std::shared_ptr" }
%"class.std::shared_ptr" = type { %"class.std::__shared_ptr" }
%"class.std::__shared_ptr" = type { ptr, %"class.std::__shared_count" }
%"class.std::__shared_count" = type { ptr }
%struct.CvScalar = type { [4 x double] }
%struct.CvMat = type { i32, i32, ptr, i32, %union.anon, %union.anon.0, %union.anon.1 }
%union.anon = type { ptr }
%union.anon.0 = type { i32 }
%union.anon.1 = type { i32 }
%"struct.cv::has_custom_delete" = type { i8 }

; Function Attrs: mustprogress uwtable
define linkonce_odr hidden void @_ZN2cv3PtrI5CvMatE5resetIS1_EEvRKSt17integral_constantIbLb1EEPT_(ptr noundef nonnull align 8 dereferenceable(16) %0, ptr noundef nonnull align 1 dereferenceable(1) %1, ptr noundef %2) #4 comdat align 2 {
  %4 = alloca ptr, align 8
  %5 = alloca ptr, align 8
  %6 = alloca ptr, align 8
  store ptr %0, ptr %4, align 8
  store ptr %1, ptr %5, align 8
  store ptr %2, ptr %6, align 8
  %7 = load ptr, ptr %4, align 8
  %8 = load ptr, ptr %6, align 8
  call void @_ZNSt12__shared_ptrI5CvMatLN9__gnu_cxx12_Lock_policyE2EE5resetIS0_N2cv14DefaultDeleterIS0_EEEENSt9enable_ifIXsr21__sp_is_constructibleIS0_T_EE5valueEvE4typeEPS9_T0_(ptr noundef nonnull align 8 dereferenceable(16) %7, ptr noundef %8)
  ret void
}

; Function Attrs: mustprogress nounwind uwtable
define linkonce_odr hidden noundef ptr @_ZNKSt12__shared_ptrI5CvMatLN9__gnu_cxx12_Lock_policyE2EE3getEv(ptr noundef nonnull align 8 dereferenceable(16) %0) #5 comdat align 2 {
  %2 = alloca ptr, align 8
  store ptr %0, ptr %2, align 8
  %3 = load ptr, ptr %2, align 8
  %4 = getelementptr inbounds %"class.std::__shared_ptr", ptr %3, i32 0, i32 0
  %5 = load ptr, ptr %4, align 8
  ret ptr %5
}

; Function Attrs: mustprogress nounwind uwtable
define internal void @_ZL11cvScalarAlld(ptr dead_on_unwind noalias writable sret(%struct.CvScalar) align 8 %0, double noundef %1) #5 {
  %3 = alloca double, align 8
  store double %1, ptr %3, align 8
  call void @llvm.memset.p0.i64(ptr align 8 %0, i8 0, i64 32, i1 false)
  %4 = load double, ptr %3, align 8
  %5 = getelementptr inbounds %struct.CvScalar, ptr %0, i32 0, i32 0
  %6 = getelementptr inbounds [4 x double], ptr %5, i64 0, i64 0
  store double %4, ptr %6, align 8
  %7 = load double, ptr %3, align 8
  %8 = getelementptr inbounds %struct.CvScalar, ptr %0, i32 0, i32 0
  %9 = getelementptr inbounds [4 x double], ptr %8, i64 0, i64 1
  store double %7, ptr %9, align 8
  %10 = load double, ptr %3, align 8
  %11 = getelementptr inbounds %struct.CvScalar, ptr %0, i32 0, i32 0
  %12 = getelementptr inbounds [4 x double], ptr %11, i64 0, i64 2
  store double %10, ptr %12, align 8
  %13 = load double, ptr %3, align 8
  %14 = getelementptr inbounds %struct.CvScalar, ptr %0, i32 0, i32 0
  %15 = getelementptr inbounds [4 x double], ptr %14, i64 0, i64 3
  store double %13, ptr %15, align 8
  ret void
}

; Function Attrs: mustprogress nounwind uwtable
define linkonce_odr hidden noundef ptr @_ZNK2cv3PtrI5CvMatEcvPS1_Ev(ptr noundef nonnull align 8 dereferenceable(16) %0) #5 comdat align 2 {
  %2 = alloca ptr, align 8
  store ptr %0, ptr %2, align 8
  %3 = load ptr, ptr %2, align 8
  %4 = call noundef ptr @_ZNKSt12__shared_ptrI5CvMatLN9__gnu_cxx12_Lock_policyE2EE3getEv(ptr noundef nonnull align 8 dereferenceable(16) %3) #3
  ret ptr %4
}

; Function Attrs: mustprogress uwtable
define linkonce_odr hidden void @_ZN2cv3PtrI5CvMatE5resetIS1_EEvPT_(ptr noundef nonnull align 8 dereferenceable(16) %0, ptr noundef %1) #4 comdat align 2 {
  %3 = alloca ptr, align 8
  %4 = alloca ptr, align 8
  %5 = alloca %"struct.cv::has_custom_delete", align 1
  store ptr %0, ptr %3, align 8
  store ptr %1, ptr %4, align 8
  %6 = load ptr, ptr %3, align 8
  %7 = load ptr, ptr %4, align 8
  call void @_ZN2cv3PtrI5CvMatE5resetIS1_EEvRKSt17integral_constantIbLb1EEPT_(ptr noundef nonnull align 8 dereferenceable(16) %6, ptr noundef nonnull align 1 dereferenceable(1) %5, ptr noundef %7)
  ret void
}

; Function Attrs: mustprogress nounwind uwtable
define linkonce_odr hidden noundef ptr @_ZNK2cv3PtrI5CvMatEptEv(ptr noundef nonnull align 8 dereferenceable(16) %0) #5 comdat align 2 {
  %2 = alloca ptr, align 8
  store ptr %0, ptr %2, align 8
  %3 = load ptr, ptr %2, align 8
  %4 = call noundef ptr @_ZNKSt12__shared_ptrI5CvMatLN9__gnu_cxx12_Lock_policyE2EE3getEv(ptr noundef nonnull align 8 dereferenceable(16) %3) #3
  ret ptr %4
}

; Function Attrs: mustprogress nounwind uwtable
define linkonce_odr hidden noundef zeroext i1 @_ZNKSt12__shared_ptrI5CvMatLN9__gnu_cxx12_Lock_policyE2EEcvbEv(ptr noundef nonnull align 8 dereferenceable(16) %0) #5 comdat align 2 {
  %2 = alloca ptr, align 8
  store ptr %0, ptr %2, align 8
  %3 = load ptr, ptr %2, align 8
  %4 = getelementptr inbounds %"class.std::__shared_ptr", ptr %3, i32 0, i32 0
  %5 = load ptr, ptr %4, align 8
  %6 = icmp ne ptr %5, null
  ret i1 %6
}

; Function Attrs: mustprogress uwtable
define void @_ZN9CvLevMarq4initEii14CvTermCriteriab(ptr noundef nonnull align 8 dereferenceable(216) %0, i32 noundef %1, i32 noundef %2, i64 %3, double %4, i1 noundef zeroext %5) #4 align 2 {
  %7 = alloca %struct.CvTermCriteria, align 8
  %8 = alloca ptr, align 8
  %9 = alloca i32, align 4
  %10 = alloca i32, align 4
  %11 = alloca i8, align 1
  %12 = alloca %struct.CvScalar, align 8
  %13 = getelementptr inbounds { i64, double }, ptr %7, i32 0, i32 0
  store i64 %3, ptr %13, align 8
  %14 = getelementptr inbounds { i64, double }, ptr %7, i32 0, i32 1
  store double %4, ptr %14, align 8
  store ptr %0, ptr %8, align 8
  store i32 %1, ptr %9, align 4
  store i32 %2, ptr %10, align 4
  %15 = zext i1 %5 to i8
  store i8 %15, ptr %11, align 1
  %16 = load ptr, ptr %8, align 8
  %17 = getelementptr inbounds %class.CvLevMarq, ptr %16, i32 0, i32 2
  %18 = call noundef zeroext i1 @_ZNKSt12__shared_ptrI5CvMatLN9__gnu_cxx12_Lock_policyE2EEcvbEv(ptr noundef nonnull align 8 dereferenceable(16) %17) #3
  br i1 %18, label %19, label %39

19:                                               ; preds = %6
  %20 = getelementptr inbounds %class.CvLevMarq, ptr %16, i32 0, i32 2
  %21 = call noundef ptr @_ZNK2cv3PtrI5CvMatEptEv(ptr noundef nonnull align 8 dereferenceable(16) %20) #3
  %22 = getelementptr inbounds %struct.CvMat, ptr %21, i32 0, i32 5
  %23 = load i32, ptr %22, align 8
  %24 = load i32, ptr %9, align 4
  %25 = icmp ne i32 %23, %24
  br i1 %25, label %39, label %26

26:                                               ; preds = %19
  %27 = load i32, ptr %10, align 4
  %28 = getelementptr inbounds %class.CvLevMarq, ptr %16, i32 0, i32 4
  %29 = call noundef zeroext i1 @_ZNKSt12__shared_ptrI5CvMatLN9__gnu_cxx12_Lock_policyE2EEcvbEv(ptr noundef nonnull align 8 dereferenceable(16) %28) #3
  br i1 %29, label %30, label %35

30:                                               ; preds = %26
  %31 = getelementptr inbounds %class.CvLevMarq, ptr %16, i32 0, i32 4
  %32 = call noundef ptr @_ZNK2cv3PtrI5CvMatEptEv(ptr noundef nonnull align 8 dereferenceable(16) %31) #3
  %33 = getelementptr inbounds %struct.CvMat, ptr %32, i32 0, i32 5
  %34 = load i32, ptr %33, align 8
  br label %36

35:                                               ; preds = %26
  br label %36

36:                                               ; preds = %35, %30
  %37 = phi i32 [ %34, %30 ], [ 0, %35 ]
  %38 = icmp ne i32 %27, %37
  br i1 %38, label %39, label %40

39:                                               ; preds = %36, %19, %6
  call void @_ZN9CvLevMarq5clearEv(ptr noundef nonnull align 8 dereferenceable(216) %16)
  br label %40

40:                                               ; preds = %39, %36
  %41 = getelementptr inbounds %class.CvLevMarq, ptr %16, i32 0, i32 0
  %42 = load i32, ptr %9, align 4
  %43 = call ptr @cvCreateMat(i32 noundef %42, i32 noundef 1, i32 noundef 0)
  call void @_ZN2cv3PtrI5CvMatE5resetIS1_EEvPT_(ptr noundef nonnull align 8 dereferenceable(16) %41, ptr noundef %43)
  %44 = getelementptr inbounds %class.CvLevMarq, ptr %16, i32 0, i32 0
  %45 = call noundef ptr @_ZNK2cv3PtrI5CvMatEcvPS1_Ev(ptr noundef nonnull align 8 dereferenceable(16) %44)
  call void @_ZL11cvScalarAlld(ptr dead_on_unwind writable sret(%struct.CvScalar) align 8 %12, double noundef 1.000000e+00)
  call void @cvSet(ptr noundef %45, ptr noundef byval(%struct.CvScalar) align 8 %12, ptr noundef null)
  %46 = getelementptr inbounds %class.CvLevMarq, ptr %16, i32 0, i32 1
  %47 = load i32, ptr %9, align 4
  %48 = call ptr @cvCreateMat(i32 noundef %47, i32 noundef 1, i32 noundef 6)
  call void @_ZN2cv3PtrI5CvMatE5resetIS1_EEvPT_(ptr noundef nonnull align 8 dereferenceable(16) %46, ptr noundef %48)
  %49 = getelementptr inbounds %class.CvLevMarq, ptr %16, i32 0, i32 2
  %50 = load i32, ptr %9, align 4
  %51 = call ptr @cvCreateMat(i32 noundef %50, i32 noundef 1, i32 noundef 6)
  call void @_ZN2cv3PtrI5CvMatE5resetIS1_EEvPT_(ptr noundef nonnull align 8 dereferenceable(16) %49, ptr noundef %51)
  %52 = getelementptr inbounds %class.CvLevMarq, ptr %16, i32 0, i32 5
  %53 = load i32, ptr %9, align 4
  %54 = load i32, ptr %9, align 4
  %55 = call ptr @cvCreateMat(i32 noundef %53, i32 noundef %54, i32 noundef 6)
  call void @_ZN2cv3PtrI5CvMatE5resetIS1_EEvPT_(ptr noundef nonnull align 8 dereferenceable(16) %52, ptr noundef %55)
  %56 = getelementptr inbounds %class.CvLevMarq, ptr %16, i32 0, i32 7
  %57 = load i32, ptr %9, align 4
  %58 = call ptr @cvCreateMat(i32 noundef %57, i32 noundef 1, i32 noundef 6)
  call void @_ZN2cv3PtrI5CvMatE5resetIS1_EEvPT_(ptr noundef nonnull align 8 dereferenceable(16) %56, ptr noundef %58)
  %59 = load i32, ptr %10, align 4
  %60 = icmp sgt i32 %59, 0
  br i1 %60, label %61, label %69

61:                                               ; preds = %40
  %62 = getelementptr inbounds %class.CvLevMarq, ptr %16, i32 0, i32 3
  %63 = load i32, ptr %10, align 4
  %64 = load i32, ptr %9, align 4
  %65 = call ptr @cvCreateMat(i32 noundef %63, i32 noundef %64, i32 noundef 6)
  call void @_ZN2cv3PtrI5CvMatE5resetIS1_EEvPT_(ptr noundef nonnull align 8 dereferenceable(16) %62, ptr noundef %65)
  %66 = getelementptr inbounds %class.CvLevMarq, ptr %16, i32 0, i32 4
  %67 = load i32, ptr %10, align 4
  %68 = call ptr @cvCreateMat(i32 noundef %67, i32 noundef 1, i32 noundef 6)
  call void @_ZN2cv3PtrI5CvMatE5resetIS1_EEvPT_(ptr noundef nonnull align 8 dereferenceable(16) %66, ptr noundef %68)
  br label %69

69:                                               ; preds = %61, %40
  %70 = getelementptr inbounds %class.CvLevMarq, ptr %16, i32 0, i32 10
  store double 0x7FEFFFFFFFFFFFFF, ptr %70, align 8
  %71 = getelementptr inbounds %class.CvLevMarq, ptr %16, i32 0, i32 11
  store double 0x7FEFFFFFFFFFFFFF, ptr %71, align 8
  %72 = getelementptr inbounds %class.CvLevMarq, ptr %16, i32 0, i32 12
  store i32 -3, ptr %72, align 8
  %73 = getelementptr inbounds %class.CvLevMarq, ptr %16, i32 0, i32 13
  call void @llvm.memcpy.p0.p0.i64(ptr align 8 %73, ptr align 8 %7, i64 16, i1 false)
  %74 = getelementptr inbounds %class.CvLevMarq, ptr %16, i32 0, i32 13
  %75 = getelementptr inbounds %struct.CvTermCriteria, ptr %74, i32 0, i32 0
  %76 = load i32, ptr %75, align 8
  %77 = and i32 %76, 1
  %78 = icmp ne i32 %77, 0
  br i1 %78, label %79, label %109

79:                                               ; preds = %69
  %80 = getelementptr inbounds %class.CvLevMarq, ptr %16, i32 0, i32 13
  %81 = getelementptr inbounds %struct.CvTermCriteria, ptr %80, i32 0, i32 1
  %82 = load i32, ptr %81, align 4
  %83 = icmp slt i32 %82, 1
  br i1 %83, label %84, label %85

84:                                               ; preds = %79
  br label %89

85:                                               ; preds = %79
  %86 = getelementptr inbounds %class.CvLevMarq, ptr %16, i32 0, i32 13
  %87 = getelementptr inbounds %struct.CvTermCriteria, ptr %86, i32 0, i32 1
  %88 = load i32, ptr %87, align 4
  br label %89

89:                                               ; preds = %85, %84
  %90 = phi i32 [ 1, %84 ], [ %88, %85 ]
  %91 = icmp sgt i32 %90, 1000
  br i1 %91, label %92, label %93

92:                                               ; preds = %89
  br label %105

93:                                               ; preds = %89
  %94 = getelementptr inbounds %class.CvLevMarq, ptr %16, i32 0, i32 13
  %95 = getelementptr inbounds %struct.CvTermCriteria, ptr %94, i32 0, i32 1
  %96 = load i32, ptr %95, align 4
  %97 = icmp slt i32 %96, 1
  br i1 %97, label %98, label %99

98:                                               ; preds = %93
  br label %103

99:                                               ; preds = %93
  %100 = getelementptr inbounds %class.CvLevMarq, ptr %16, i32 0, i32 13
  %101 = getelementptr inbounds %struct.CvTermCriteria, ptr %100, i32 0, i32 1
  %102 = load i32, ptr %101, align 4
  br label %103

103:                                              ; preds = %99, %98
  %104 = phi i32 [ 1, %98 ], [ %102, %99 ]
  br label %105

105:                                              ; preds = %103, %92
  %106 = phi i32 [ 1000, %92 ], [ %104, %103 ]
  %107 = getelementptr inbounds %class.CvLevMarq, ptr %16, i32 0, i32 13
  %108 = getelementptr inbounds %struct.CvTermCriteria, ptr %107, i32 0, i32 1
  store i32 %106, ptr %108, align 4
  br label %112

109:                                              ; preds = %69
  %110 = getelementptr inbounds %class.CvLevMarq, ptr %16, i32 0, i32 13
  %111 = getelementptr inbounds %struct.CvTermCriteria, ptr %110, i32 0, i32 1
  store i32 30, ptr %111, align 4
  br label %112

112:                                              ; preds = %109, %105
  %113 = getelementptr inbounds %class.CvLevMarq, ptr %16, i32 0, i32 13
  %114 = getelementptr inbounds %struct.CvTermCriteria, ptr %113, i32 0, i32 0
  %115 = load i32, ptr %114, align 8
  %116 = and i32 %115, 2
  %117 = icmp ne i32 %116, 0
  br i1 %117, label %118, label %132

118:                                              ; preds = %112
  %119 = getelementptr inbounds %class.CvLevMarq, ptr %16, i32 0, i32 13
  %120 = getelementptr inbounds %struct.CvTermCriteria, ptr %119, i32 0, i32 2
  %121 = load double, ptr %120, align 8
  %122 = fcmp olt double %121, 0.000000e+00
  br i1 %122, label %123, label %124

123:                                              ; preds = %118
  br label %128

124:                                              ; preds = %118
  %125 = getelementptr inbounds %class.CvLevMarq, ptr %16, i32 0, i32 13
  %126 = getelementptr inbounds %struct.CvTermCriteria, ptr %125, i32 0, i32 2
  %127 = load double, ptr %126, align 8
  br label %128

128:                                              ; preds = %124, %123
  %129 = phi double [ 0.000000e+00, %123 ], [ %127, %124 ]
  %130 = getelementptr inbounds %class.CvLevMarq, ptr %16, i32 0, i32 13
  %131 = getelementptr inbounds %struct.CvTermCriteria, ptr %130, i32 0, i32 2
  store double %129, ptr %131, align 8
  br label %135

132:                                              ; preds = %112
  %133 = getelementptr inbounds %class.CvLevMarq, ptr %16, i32 0, i32 13
  %134 = getelementptr inbounds %struct.CvTermCriteria, ptr %133, i32 0, i32 2
  store double 0x3CB0000000000000, ptr %134, align 8
  br label %135

135:                                              ; preds = %132, %128
  %136 = getelementptr inbounds %class.CvLevMarq, ptr %16, i32 0, i32 14
  store i32 1, ptr %136, align 8
  %137 = getelementptr inbounds %class.CvLevMarq, ptr %16, i32 0, i32 15
  store i32 0, ptr %137, align 4
  %138 = load i8, ptr %11, align 1
  %139 = trunc i8 %138 to i1
  %140 = getelementptr inbounds %class.CvLevMarq, ptr %16, i32 0, i32 16
  %141 = zext i1 %139 to i8
  store i8 %141, ptr %140, align 8
  %142 = getelementptr inbounds %class.CvLevMarq, ptr %16, i32 0, i32 17
  store i32 1, ptr %142, align 4
  ret void
}