; Function Attrs: mustprogress uwtable
define void @_ZN9CvLevMarq4initEii14CvTermCriteriab(ptr noundef nonnull align 8 dereferenceable(216) %0, i32 noundef %1, i32 noundef %2, i64 %3, double %4, i1 noundef zeroext %5) local_unnamed_addr #5 align 2 {
  %7 = alloca %struct.CvScalar, align 16
  %8 = getelementptr inbounds i8, ptr %0, i64 32
  %9 = load ptr, ptr %8, align 8
  %.not20 = icmp eq ptr %9, null
  br i1 %.not20, label %21, label %10

10:                                               ; preds = %6
  %11 = getelementptr inbounds i8, ptr %9, i64 32
  %12 = load i32, ptr %11, align 8
  %.not = icmp eq i32 %12, %1
  br i1 %.not, label %13, label %21

13:                                               ; preds = %10
  %14 = getelementptr inbounds i8, ptr %0, i64 64
  %15 = load ptr, ptr %14, align 8
  %.not21 = icmp eq ptr %15, null
  br i1 %.not21, label %19, label %16

16:                                               ; preds = %13
  %17 = getelementptr inbounds i8, ptr %15, i64 32
  %18 = load i32, ptr %17, align 8
  br label %19

19:                                               ; preds = %13, %16
  %20 = phi i32 [ %18, %16 ], [ 0, %13 ]
  %.not16 = icmp eq i32 %20, %2
  br i1 %.not16, label %22, label %21

21:                                               ; preds = %19, %10, %6
  tail call void @_ZN9CvLevMarq5clearEv(ptr noundef nonnull align 8 dereferenceable(216) %0)
  br label %22

22:                                               ; preds = %21, %19
  %23 = tail call ptr @cvCreateMat(i32 noundef %1, i32 noundef 1, i32 noundef 0)
  tail call void @_ZNSt12__shared_ptrI5CvMatLN9__gnu_cxx12_Lock_policyE2EE5resetIS0_N2cv14DefaultDeleterIS0_EEEENSt9enable_ifIXsr21__sp_is_constructibleIS0_T_EE5valueEvE4typeEPS9_T0_(ptr noundef nonnull align 8 dereferenceable(16) %0, ptr noundef %23)
  %24 = load ptr, ptr %0, align 8
  store <2 x double> <double 1.000000e+00, double 1.000000e+00>, ptr %7, align 16, !alias.scope !4
  %25 = getelementptr inbounds i8, ptr %7, i64 16
  store <2 x double> <double 1.000000e+00, double 1.000000e+00>, ptr %25, align 16, !alias.scope !4
  tail call void @cvSet(ptr noundef %24, ptr noundef nonnull byval(%struct.CvScalar) align 8 %7, ptr noundef null)
  %26 = getelementptr inbounds i8, ptr %0, i64 16
  %27 = tail call ptr @cvCreateMat(i32 noundef %1, i32 noundef 1, i32 noundef 6)
  tail call void @_ZNSt12__shared_ptrI5CvMatLN9__gnu_cxx12_Lock_policyE2EE5resetIS0_N2cv14DefaultDeleterIS0_EEEENSt9enable_ifIXsr21__sp_is_constructibleIS0_T_EE5valueEvE4typeEPS9_T0_(ptr noundef nonnull align 8 dereferenceable(16) %26, ptr noundef %27)
  %28 = tail call ptr @cvCreateMat(i32 noundef %1, i32 noundef 1, i32 noundef 6)
  tail call void @_ZNSt12__shared_ptrI5CvMatLN9__gnu_cxx12_Lock_policyE2EE5resetIS0_N2cv14DefaultDeleterIS0_EEEENSt9enable_ifIXsr21__sp_is_constructibleIS0_T_EE5valueEvE4typeEPS9_T0_(ptr noundef nonnull align 8 dereferenceable(16) %8, ptr noundef %28)
  %29 = getelementptr inbounds i8, ptr %0, i64 80
  %30 = tail call ptr @cvCreateMat(i32 noundef %1, i32 noundef %1, i32 noundef 6)
  tail call void @_ZNSt12__shared_ptrI5CvMatLN9__gnu_cxx12_Lock_policyE2EE5resetIS0_N2cv14DefaultDeleterIS0_EEEENSt9enable_ifIXsr21__sp_is_constructibleIS0_T_EE5valueEvE4typeEPS9_T0_(ptr noundef nonnull align 8 dereferenceable(16) %29, ptr noundef %30)
  %31 = getelementptr inbounds i8, ptr %0, i64 112
  %32 = tail call ptr @cvCreateMat(i32 noundef %1, i32 noundef 1, i32 noundef 6)
  tail call void @_ZNSt12__shared_ptrI5CvMatLN9__gnu_cxx12_Lock_policyE2EE5resetIS0_N2cv14DefaultDeleterIS0_EEEENSt9enable_ifIXsr21__sp_is_constructibleIS0_T_EE5valueEvE4typeEPS9_T0_(ptr noundef nonnull align 8 dereferenceable(16) %31, ptr noundef %32)
  %33 = icmp sgt i32 %2, 0
  br i1 %33, label %34, label %39

34:                                               ; preds = %22
  %35 = getelementptr inbounds i8, ptr %0, i64 48
  %36 = tail call ptr @cvCreateMat(i32 noundef %2, i32 noundef %1, i32 noundef 6)
  tail call void @_ZNSt12__shared_ptrI5CvMatLN9__gnu_cxx12_Lock_policyE2EE5resetIS0_N2cv14DefaultDeleterIS0_EEEENSt9enable_ifIXsr21__sp_is_constructibleIS0_T_EE5valueEvE4typeEPS9_T0_(ptr noundef nonnull align 8 dereferenceable(16) %35, ptr noundef %36)
  %37 = getelementptr inbounds i8, ptr %0, i64 64
  %38 = tail call ptr @cvCreateMat(i32 noundef %2, i32 noundef 1, i32 noundef 6)
  tail call void @_ZNSt12__shared_ptrI5CvMatLN9__gnu_cxx12_Lock_policyE2EE5resetIS0_N2cv14DefaultDeleterIS0_EEEENSt9enable_ifIXsr21__sp_is_constructibleIS0_T_EE5valueEvE4typeEPS9_T0_(ptr noundef nonnull align 8 dereferenceable(16) %37, ptr noundef %38)
  br label %39

39:                                               ; preds = %34, %22
  %40 = getelementptr inbounds i8, ptr %0, i64 160
  store <2 x double> <double 0x7FEFFFFFFFFFFFFF, double 0x7FEFFFFFFFFFFFFF>, ptr %40, align 8
  %41 = getelementptr inbounds i8, ptr %0, i64 176
  store i32 -3, ptr %41, align 8
  %42 = getelementptr inbounds i8, ptr %0, i64 184
  store i64 %3, ptr %42, align 8
  %43 = trunc i64 %3 to i32
  %44 = and i32 %43, 1
  %.not17 = icmp eq i32 %44, 0
  br i1 %.not17, label %50, label %45

45:                                               ; preds = %39
  %46 = lshr i64 %3, 32
  %47 = trunc nuw i64 %46 to i32
  %48 = getelementptr inbounds i8, ptr %0, i64 188
  %spec.select19 = tail call i32 @llvm.smax.i32(i32 %47, i32 1)
  %49 = tail call i32 @llvm.umin.i32(i32 %spec.select19, i32 1000)
  store i32 %49, ptr %48, align 4
  br label %52

50:                                               ; preds = %39
  %51 = getelementptr inbounds i8, ptr %0, i64 188
  store i32 30, ptr %51, align 4
  br label %52

52:                                               ; preds = %50, %45
  %.sroa.2.0..sroa_idx = getelementptr inbounds i8, ptr %0, i64 192
  %53 = and i32 %43, 2
  %.not18 = icmp eq i32 %53, 0
  %54 = fcmp olt double %4, 0.000000e+00
  %55 = select i1 %54, double 0.000000e+00, double %4
  %storemerge = select i1 %.not18, double 0x3CB0000000000000, double %55
  store double %storemerge, ptr %.sroa.2.0..sroa_idx, align 8
  %56 = zext i1 %5 to i8
  %57 = getelementptr inbounds i8, ptr %0, i64 200
  store i32 1, ptr %57, align 8
  %58 = getelementptr inbounds i8, ptr %0, i64 204
  store i32 0, ptr %58, align 4
  %59 = getelementptr inbounds i8, ptr %0, i64 208
  store i8 %56, ptr %59, align 8
  %60 = getelementptr inbounds i8, ptr %0, i64 212
  store i32 1, ptr %60, align 4
  ret void
}